; Function Attrs: nounwind uwtable
define noalias noundef nonnull ptr @l_Lean_withTraceNode___at___private_Lean_Meta_Tactic_Backtrack_0__Lean_Meta_Tactic_Backtrack_Backtrack_run___spec__6___lambda__3___boxed(ptr noundef %0, ptr noundef %1, ptr noundef %2, ptr noundef %3, ptr noundef %4, ptr noundef %5, ptr noundef %6, ptr noundef %7, ptr noundef %8, ptr noundef %9, ptr noundef %10, ptr noundef %11, ptr noundef %12, ptr noundef %13, ptr noundef %14) local_unnamed_addr #0 {
  %16 = ptrtoint ptr %1 to i64
  %17 = lshr i64 %16, 1
  %18 = trunc i64 %17 to i8
  %19 = and i64 %16, 1
  %.not = icmp eq i64 %19, 0
  br i1 %.not, label %20, label %lean_dec.exit27

20:                                               ; preds = %15
  %21 = load i32, ptr %1, align 4, !tbaa !4
  %22 = icmp sgt i32 %21, 1
  br i1 %22, label %23, label %25, !prof !9

23:                                               ; preds = %20
  %24 = add nsw i32 %21, -1
  store i32 %24, ptr %1, align 4, !tbaa !4
  br label %lean_dec.exit27

25:                                               ; preds = %20
  %.not.i = icmp eq i32 %21, 0
  br i1 %.not.i, label %lean_dec.exit27, label %26

26:                                               ; preds = %25
  tail call void @lean_dec_ref_cold(ptr noundef nonnull %1) #4
  br label %lean_dec.exit27

lean_dec.exit27:                                  ; preds = %26, %25, %23, %15
  %27 = ptrtoint ptr %5 to i64
  %28 = lshr i64 %27, 1
  %29 = trunc i64 %28 to i8
  %30 = and i64 %27, 1
  %.not37 = icmp eq i64 %30, 0
  br i1 %.not37, label %31, label %lean_dec.exit26

31:                                               ; preds = %lean_dec.exit27
  %32 = load i32, ptr %5, align 4, !tbaa !4
  %33 = icmp sgt i32 %32, 1
  br i1 %33, label %34, label %36, !prof !9

34:                                               ; preds = %31
  %35 = add nsw i32 %32, -1
  store i32 %35, ptr %5, align 4, !tbaa !4
  br label %lean_dec.exit26

36:                                               ; preds = %31
  %.not.i28 = icmp eq i32 %32, 0
  br i1 %.not.i28, label %lean_dec.exit26, label %37

37:                                               ; preds = %36
  tail call void @lean_dec_ref_cold(ptr noundef nonnull %5) #4
  br label %lean_dec.exit26

lean_dec.exit26:                                  ; preds = %37, %36, %34, %lean_dec.exit27
  %38 = getelementptr i8, ptr %6, i64 8
  %.val36 = load double, ptr %38, align 8, !tbaa !16
  %39 = ptrtoint ptr %6 to i64
  %40 = and i64 %39, 1
  %.not38 = icmp eq i64 %40, 0
  br i1 %.not38, label %41, label %lean_dec.exit25

41:                                               ; preds = %lean_dec.exit26
  %42 = load i32, ptr %6, align 4, !tbaa !4
  %43 = icmp sgt i32 %42, 1
  br i1 %43, label %44, label %46, !prof !9

44:                                               ; preds = %41
  %45 = add nsw i32 %42, -1
  store i32 %45, ptr %6, align 4, !tbaa !4
  br label %lean_dec.exit25

46:                                               ; preds = %41
  %.not.i30 = icmp eq i32 %42, 0
  br i1 %.not.i30, label %lean_dec.exit25, label %47

47:                                               ; preds = %46
  tail call void @lean_dec_ref_cold(ptr noundef nonnull %6) #4
  br label %lean_dec.exit25

lean_dec.exit25:                                  ; preds = %47, %46, %44, %lean_dec.exit26
  %48 = getelementptr i8, ptr %7, i64 8
  %.val = load double, ptr %48, align 8, !tbaa !16
  %49 = ptrtoint ptr %7 to i64
  %50 = and i64 %49, 1
  %.not39 = icmp eq i64 %50, 0
  br i1 %.not39, label %51, label %lean_dec.exit24

51:                                               ; preds = %lean_dec.exit25
  %52 = load i32, ptr %7, align 4, !tbaa !4
  %53 = icmp sgt i32 %52, 1
  br i1 %53, label %54, label %56, !prof !9

54:                                               ; preds = %51
  %55 = add nsw i32 %52, -1
  store i32 %55, ptr %7, align 4, !tbaa !4
  br label %lean_dec.exit24

56:                                               ; preds = %51
  %.not.i32 = icmp eq i32 %52, 0
  br i1 %.not.i32, label %lean_dec.exit24, label %57

57:                                               ; preds = %56
  tail call void @lean_dec_ref_cold(ptr noundef nonnull %7) #4
  br label %lean_dec.exit24

lean_dec.exit24:                                  ; preds = %57, %56, %54, %lean_dec.exit25
  %58 = tail call ptr @l_Lean_withTraceNode___at___private_Lean_Meta_Tactic_Backtrack_0__Lean_Meta_Tactic_Backtrack_Backtrack_run___spec__6___lambda__3(ptr noundef %0, i8 noundef zeroext %18, ptr noundef %2, ptr noundef %3, ptr noundef %4, i8 noundef zeroext %29, double noundef %.val36, double noundef %.val, ptr noundef %8, ptr poison, ptr noundef %10, ptr noundef %11, ptr noundef %12, ptr noundef %13, ptr noundef %14)
  %59 = ptrtoint ptr %9 to i64
  %60 = and i64 %59, 1
  %.not40 = icmp eq i64 %60, 0
  br i1 %.not40, label %61, label %lean_dec.exit

61:                                               ; preds = %lean_dec.exit24
  %62 = load i32, ptr %9, align 4, !tbaa !4
  %63 = icmp sgt i32 %62, 1
  br i1 %63, label %64, label %66, !prof !9

64:                                               ; preds = %61
  %65 = add nsw i32 %62, -1
  store i32 %65, ptr %9, align 4, !tbaa !4
  br label %lean_dec.exit

66:                                               ; preds = %61
  %.not.i34 = icmp eq i32 %62, 0
  br i1 %.not.i34, label %lean_dec.exit, label %67

67:                                               ; preds = %66
  tail call void @lean_dec_ref_cold(ptr noundef nonnull %9) #4
  br label %lean_dec.exit

lean_dec.exit:                                    ; preds = %67, %66, %64, %lean_dec.exit24
  ret ptr %58
}